; Function Attrs: mustprogress uwtable
define void @_Z22json_schema_to_grammarRKN8nlohmann16json_abi_v3_11_310basic_jsonINS0_11ordered_mapESt6vectorNSt7__cxx1112basic_stringIcSt11char_traitsIcESaIcEEEblmdSaNS0_14adl_serializerES3_IhSaIhEEvEEb(ptr dead_on_unwind noalias writable sret(%"class.std::__cxx11::basic_string") align 8 %0, ptr noundef nonnull align 8 dereferenceable(16) %1, i1 noundef zeroext %2) local_unnamed_addr #1 personality ptr @__gxx_personality_v0 {
  %4 = alloca %"class.std::function", align 8
  %5 = alloca %struct.common_grammar_options, align 1
  call void @llvm.lifetime.start.p0(i64 32, ptr nonnull %4) #34
  %6 = ptrtoint ptr %1 to i64
  %7 = getelementptr inbounds nuw i8, ptr %4, i64 16
  %8 = getelementptr inbounds nuw i8, ptr %4, i64 24
  %9 = getelementptr inbounds nuw i8, ptr %4, i64 8
  store i64 0, ptr %9, align 8
  store i64 %6, ptr %4, align 8, !tbaa !69
  store ptr @"_ZNSt17_Function_handlerIFvRK22common_grammar_builderEZ22json_schema_to_grammarRKN8nlohmann16json_abi_v3_11_310basic_jsonINS5_11ordered_mapESt6vectorNSt7__cxx1112basic_stringIcSt11char_traitsIcESaIcEEEblmdSaNS5_14adl_serializerES8_IhSaIhEEvEEbE3$_0E9_M_invokeERKSt9_Any_dataS2_", ptr %8, align 8, !tbaa !71
  store ptr @"_ZNSt17_Function_handlerIFvRK22common_grammar_builderEZ22json_schema_to_grammarRKN8nlohmann16json_abi_v3_11_310basic_jsonINS5_11ordered_mapESt6vectorNSt7__cxx1112basic_stringIcSt11char_traitsIcESaIcEEEblmdSaNS5_14adl_serializerES8_IhSaIhEEvEEbE3$_0E10_M_managerERSt9_Any_dataRKSN_St18_Manager_operation", ptr %7, align 8, !tbaa !74
  call void @llvm.lifetime.start.p0(i64 2, ptr nonnull %5) #34
  store i8 0, ptr %5, align 1, !tbaa !75
  %10 = getelementptr inbounds nuw i8, ptr %5, i64 1
  store i8 0, ptr %10, align 1, !tbaa !78
  invoke void @_Z13build_grammarB5cxx11RKSt8functionIFvRK22common_grammar_builderEERK22common_grammar_options(ptr dead_on_unwind writable sret(%"class.std::__cxx11::basic_string") align 8 %0, ptr noundef nonnull align 8 dereferenceable(32) %4, ptr noundef nonnull align 1 dereferenceable(2) %5)
          to label %11 unwind label %18

11:                                               ; preds = %3
  call void @llvm.lifetime.end.p0(i64 2, ptr nonnull %5) #34
  %12 = load ptr, ptr %7, align 8, !tbaa !74
  %.not.i = icmp eq ptr %12, null
  br i1 %.not.i, label %_ZNSt14_Function_baseD2Ev.exit, label %13

13:                                               ; preds = %11
  %14 = invoke noundef zeroext i1 %12(ptr noundef nonnull align 8 dereferenceable(32) %4, ptr noundef nonnull align 8 dereferenceable(32) %4, i32 noundef 3)
          to label %_ZNSt14_Function_baseD2Ev.exit unwind label %15

15:                                               ; preds = %13
  %16 = landingpad { ptr, i32 }
          catch ptr null
  %17 = extractvalue { ptr, i32 } %16, 0
  call void @__clang_call_terminate(ptr %17) #36
  unreachable

_ZNSt14_Function_baseD2Ev.exit:                   ; preds = %11, %13
  call void @llvm.lifetime.end.p0(i64 32, ptr nonnull %4) #34
  ret void

18:                                               ; preds = %3
  %19 = landingpad { ptr, i32 }
          cleanup
  call void @llvm.lifetime.end.p0(i64 2, ptr nonnull %5) #34
  %20 = load ptr, ptr %7, align 8, !tbaa !74
  %.not.i2 = icmp eq ptr %20, null
  br i1 %.not.i2, label %_ZNSt14_Function_baseD2Ev.exit3, label %21

21:                                               ; preds = %18
  %22 = invoke noundef zeroext i1 %20(ptr noundef nonnull align 8 dereferenceable(32) %4, ptr noundef nonnull align 8 dereferenceable(32) %4, i32 noundef 3)
          to label %_ZNSt14_Function_baseD2Ev.exit3 unwind label %23

23:                                               ; preds = %21
  %24 = landingpad { ptr, i32 }
          catch ptr null
  %25 = extractvalue { ptr, i32 } %24, 0
  call void @__clang_call_terminate(ptr %25) #36
  unreachable

_ZNSt14_Function_baseD2Ev.exit3:                  ; preds = %18, %21
  call void @llvm.lifetime.end.p0(i64 32, ptr nonnull %4) #34
  resume { ptr, i32 } %19
}